target datalayout = "e-m:e-p270:32:32-p271:32:32-p272:64:64-i64:64-i128:128-f80:128-n8:16:32:64-S128"
target triple = "x86_64-pc-linux-gnu"

; Function Attrs: nounwind uwtable
define internal i32 @process_command(ptr noundef %0, ptr noundef %1, ptr noundef %2, ptr noundef %3, i32 noundef %4, i32 noundef %5) #1 {
  %7 = alloca i32, align 4
  %8 = alloca ptr, align 8
  %9 = alloca ptr, align 8
  %10 = alloca ptr, align 8
  %11 = alloca ptr, align 8
  %12 = alloca i32, align 4
  %13 = alloca i32, align 4
  %14 = alloca i32, align 4
  %15 = alloca i32, align 4
  store ptr %0, ptr %8, align 8, !tbaa !4
  store ptr %1, ptr %9, align 8, !tbaa !53
  store ptr %2, ptr %10, align 8, !tbaa !53
  store ptr %3, ptr %11, align 8, !tbaa !53
  store i32 %4, ptr %12, align 4, !tbaa !42
  store i32 %5, ptr %13, align 4, !tbaa !42
  call void @llvm.lifetime.start.p0(i64 4, ptr %14) #12
  %16 = load ptr, ptr %8, align 8, !tbaa !4
  %17 = load ptr, ptr %9, align 8, !tbaa !53
  %18 = load ptr, ptr %10, align 8, !tbaa !53
  %19 = load ptr, ptr %11, align 8, !tbaa !53
  %20 = load i32, ptr %12, align 4, !tbaa !42
  %21 = load i32, ptr %13, align 4, !tbaa !42
  %22 = call i32 @ff_filter_process_command(ptr noundef %16, ptr noundef %17, ptr noundef %18, ptr noundef %19, i32 noundef %20, i32 noundef %21)
  store i32 %22, ptr %14, align 4, !tbaa !42
  %23 = load i32, ptr %14, align 4, !tbaa !42
  %24 = icmp slt i32 %23, 0
  br i1 %24, label %25, label %27

25:                                               ; preds = %6
  %26 = load i32, ptr %14, align 4, !tbaa !42
  store i32 %26, ptr %7, align 4
  store i32 1, ptr %15, align 4
  br label %30

27:                                               ; preds = %6
  %28 = load ptr, ptr %8, align 8, !tbaa !4
  %29 = call i32 @parse_weights(ptr noundef %28)
  store i32 %29, ptr %7, align 4
  store i32 1, ptr %15, align 4
  br label %30

30:                                               ; preds = %27, %25
  call void @llvm.lifetime.end.p0(i64 4, ptr %14) #12
  %31 = load i32, ptr %7, align 4
  ret i32 %31
}